; Function Attrs: mustprogress nounwind uwtable
define internal void @"_ZNSt17_Function_handlerIFvRN5clang4ento22PathSensitiveBugReportERN4llvm11raw_ostreamEEZNK12_GLOBAL__N_116SmartPtrModeling20handleBoolConversionERKNS1_9CallEventERNS1_14CheckerContextEE3$_0E9_M_invokeERKSt9_Any_dataS3_S6_"(ptr nocapture noundef nonnull readonly align 8 dereferenceable(16) %0, ptr nocapture nonnull readnone align 8 %1, ptr noundef nonnull align 8 dereferenceable(48) %2) #0 align 2 {
  %4 = getelementptr inbounds nuw i8, ptr %2, i64 24
  %5 = load ptr, ptr %4, align 8
  %6 = getelementptr inbounds nuw i8, ptr %2, i64 32
  %7 = load ptr, ptr %6, align 8
  %8 = ptrtoint ptr %5 to i64
  %9 = ptrtoint ptr %7 to i64
  %10 = sub i64 %8, %9
  %11 = icmp ult i64 %10, 22
  br i1 %11, label %12, label %14

12:                                               ; preds = %3
  %13 = tail call noundef nonnull align 8 dereferenceable(48) ptr @_ZN4llvm11raw_ostream5writeEPKcm(ptr noundef nonnull align 8 dereferenceable(48) %2, ptr noundef nonnull @.str.28, i64 noundef 22) #17
  br label %_ZN4llvm11raw_ostreamlsEPKc.exit.i.i.i

14:                                               ; preds = %3
  tail call void @llvm.memcpy.p0.p0.i64(ptr noundef nonnull align 1 dereferenceable(22) %7, ptr noundef nonnull align 1 dereferenceable(22) @.str.28, i64 22, i1 false)
  %15 = load ptr, ptr %6, align 8
  %16 = getelementptr inbounds i8, ptr %15, i64 22
  store ptr %16, ptr %6, align 8
  br label %_ZN4llvm11raw_ostreamlsEPKc.exit.i.i.i

_ZN4llvm11raw_ostreamlsEPKc.exit.i.i.i:           ; preds = %14, %12
  %17 = load ptr, ptr %0, align 8
  %18 = load ptr, ptr %17, align 8
  %19 = getelementptr inbounds i8, ptr %18, i64 48
  %20 = load ptr, ptr %19, align 8
  %21 = tail call noundef zeroext i1 %20(ptr noundef nonnull align 8 dereferenceable(48) %17) #17
  br i1 %21, label %22, label %_ZL25checkAndPrettyPrintRegionRN4llvm11raw_ostreamEPKN5clang4ento9MemRegionE.exit.i.i.i

22:                                               ; preds = %_ZN4llvm11raw_ostreamlsEPKc.exit.i.i.i
  %23 = load ptr, ptr %4, align 8
  %24 = load ptr, ptr %6, align 8
  %25 = icmp eq ptr %23, %24
  br i1 %25, label %26, label %28

26:                                               ; preds = %22
  %27 = tail call noundef nonnull align 8 dereferenceable(48) ptr @_ZN4llvm11raw_ostream5writeEPKcm(ptr noundef nonnull align 8 dereferenceable(48) %2, ptr noundef nonnull @.str.22, i64 noundef 1) #17
  br label %_ZN4llvm11raw_ostreamlsEPKc.exit.i.i.i.i

28:                                               ; preds = %22
  store i8 32, ptr %24, align 1
  %29 = load ptr, ptr %6, align 8
  %30 = getelementptr inbounds i8, ptr %29, i64 1
  store ptr %30, ptr %6, align 8
  br label %_ZN4llvm11raw_ostreamlsEPKc.exit.i.i.i.i

_ZN4llvm11raw_ostreamlsEPKc.exit.i.i.i.i:         ; preds = %28, %26
  %31 = load ptr, ptr %17, align 8
  %32 = getelementptr inbounds i8, ptr %31, i64 56
  %33 = load ptr, ptr %32, align 8
  tail call void %33(ptr noundef nonnull align 8 dereferenceable(48) %17, ptr noundef nonnull align 8 dereferenceable(48) %2) #17
  br label %_ZL25checkAndPrettyPrintRegionRN4llvm11raw_ostreamEPKN5clang4ento9MemRegionE.exit.i.i.i

_ZL25checkAndPrettyPrintRegionRN4llvm11raw_ostreamEPKN5clang4ento9MemRegionE.exit.i.i.i: ; preds = %_ZN4llvm11raw_ostreamlsEPKc.exit.i.i.i.i, %_ZN4llvm11raw_ostreamlsEPKc.exit.i.i.i
  %34 = load ptr, ptr %4, align 8
  %35 = load ptr, ptr %6, align 8
  %36 = ptrtoint ptr %34 to i64
  %37 = ptrtoint ptr %35 to i64
  %38 = sub i64 %36, %37
  %39 = icmp ult i64 %38, 8
  br i1 %39, label %40, label %42

40:                                               ; preds = %_ZL25checkAndPrettyPrintRegionRN4llvm11raw_ostreamEPKN5clang4ento9MemRegionE.exit.i.i.i
  %41 = tail call noundef nonnull align 8 dereferenceable(48) ptr @_ZN4llvm11raw_ostream5writeEPKcm(ptr noundef nonnull align 8 dereferenceable(48) %2, ptr noundef nonnull @.str.29, i64 noundef 8) #17
  br label %"_ZSt10__invoke_rIvRZNK12_GLOBAL__N_116SmartPtrModeling20handleBoolConversionERKN5clang4ento9CallEventERNS3_14CheckerContextEE3$_0JRNS3_22PathSensitiveBugReportERN4llvm11raw_ostreamEEENSt9enable_ifIX16is_invocable_r_vIT_T0_DpT1_EESH_E4typeEOSI_DpOSJ_.exit"

42:                                               ; preds = %_ZL25checkAndPrettyPrintRegionRN4llvm11raw_ostreamEPKN5clang4ento9MemRegionE.exit.i.i.i
  store i64 7812748569432254752, ptr %35, align 1
  %43 = load ptr, ptr %6, align 8
  %44 = getelementptr inbounds i8, ptr %43, i64 8
  store ptr %44, ptr %6, align 8
  br label %"_ZSt10__invoke_rIvRZNK12_GLOBAL__N_116SmartPtrModeling20handleBoolConversionERKN5clang4ento9CallEventERNS3_14CheckerContextEE3$_0JRNS3_22PathSensitiveBugReportERN4llvm11raw_ostreamEEENSt9enable_ifIX16is_invocable_r_vIT_T0_DpT1_EESH_E4typeEOSI_DpOSJ_.exit"

"_ZSt10__invoke_rIvRZNK12_GLOBAL__N_116SmartPtrModeling20handleBoolConversionERKN5clang4ento9CallEventERNS3_14CheckerContextEE3$_0JRNS3_22PathSensitiveBugReportERN4llvm11raw_ostreamEEENSt9enable_ifIX16is_invocable_r_vIT_T0_DpT1_EESH_E4typeEOSI_DpOSJ_.exit": ; preds = %40, %42
  ret void
}